target datalayout = "e-m:e-p270:32:32-p271:32:32-p272:64:64-i64:64-i128:128-f80:128-n8:16:32:64-S128"
target triple = "x86_64-pc-linux-gnu"

%struct.Aig_Obj_t_ = type { %union.anon, ptr, ptr, i64, i32, i32, %union.anon.0 }
%union.anon = type { ptr }
%union.anon.0 = type { ptr }
%struct.Aig_Man_t_ = type { ptr, ptr, ptr, ptr, ptr, ptr, ptr, %struct.Aig_Obj_t_, i32, i32, i32, i32, i32, i32, [7 x i32], i32, ptr, i32, ptr, i32, ptr, i32, i32, i32, ptr, i32, i32, i32, i32, i32, ptr, ptr, i32, ptr, ptr, i32, ptr, ptr, i32, i32, i32, ptr, ptr, ptr, ptr, ptr, ptr, ptr, ptr, ptr, ptr, ptr, ptr, ptr, ptr, i32, ptr, ptr, ptr, ptr, i32, i64, i64, i64, ptr, ptr }
%struct.Vec_Ptr_t_ = type { i32, i32, ptr }

; Function Attrs: inlinehint nounwind uwtable
define internal ptr @Vec_PtrEntry(ptr noundef %0, i32 noundef %1) #2 {
  %3 = alloca ptr, align 8
  %4 = alloca i32, align 4
  store ptr %0, ptr %3, align 8, !tbaa !8
  store i32 %1, ptr %4, align 4, !tbaa !10
  %5 = load ptr, ptr %3, align 8, !tbaa !8
  %6 = getelementptr inbounds nuw %struct.Vec_Ptr_t_, ptr %5, i32 0, i32 2
  %7 = load ptr, ptr %6, align 8, !tbaa !29
  %8 = load i32, ptr %4, align 4, !tbaa !10
  %9 = sext i32 %8 to i64
  %10 = getelementptr inbounds ptr, ptr %7, i64 %9
  %11 = load ptr, ptr %10, align 8, !tbaa !31
  ret ptr %11
}

; Function Attrs: inlinehint nounwind uwtable
define internal i32 @Saig_ManPoNum(ptr noundef %0) #2 {
  %2 = alloca ptr, align 8
  store ptr %0, ptr %2, align 8, !tbaa !3
  %3 = load ptr, ptr %2, align 8, !tbaa !3
  %4 = getelementptr inbounds nuw %struct.Aig_Man_t_, ptr %3, i32 0, i32 10
  %5 = load i32, ptr %4, align 8, !tbaa !58
  ret i32 %5
}

; Function Attrs: inlinehint nounwind uwtable
define internal i32 @Saig_ManRegNum(ptr noundef %0) #2 {
  %2 = alloca ptr, align 8
  store ptr %0, ptr %2, align 8, !tbaa !3
  %3 = load ptr, ptr %2, align 8, !tbaa !3
  %4 = getelementptr inbounds nuw %struct.Aig_Man_t_, ptr %3, i32 0, i32 8
  %5 = load i32, ptr %4, align 8, !tbaa !35
  ret i32 %5
}

; Function Attrs: nounwind uwtable
define i32 @Saig_SynchCountX(ptr noundef %0, ptr noundef %1, i32 noundef %2, ptr noundef %3) #0 {
  %5 = alloca ptr, align 8
  %6 = alloca ptr, align 8
  %7 = alloca i32, align 4
  %8 = alloca ptr, align 8
  %9 = alloca ptr, align 8
  %10 = alloca ptr, align 8
  %11 = alloca ptr, align 8
  %12 = alloca i32, align 4
  %13 = alloca i32, align 4
  %14 = alloca i32, align 4
  %15 = alloca i32, align 4
  %16 = alloca i32, align 4
  store ptr %0, ptr %5, align 8, !tbaa !3
  store ptr %1, ptr %6, align 8, !tbaa !8
  store i32 %2, ptr %7, align 4, !tbaa !10
  store ptr %3, ptr %8, align 8, !tbaa !16
  call void @llvm.lifetime.start.p0(i64 8, ptr %9) #10
  call void @llvm.lifetime.start.p0(i64 8, ptr %10) #10
  call void @llvm.lifetime.start.p0(i64 8, ptr %11) #10
  call void @llvm.lifetime.start.p0(i64 4, ptr %12) #10
  call void @llvm.lifetime.start.p0(i64 4, ptr %13) #10
  call void @llvm.lifetime.start.p0(i64 4, ptr %14) #10
  call void @llvm.lifetime.start.p0(i64 4, ptr %15) #10
  call void @llvm.lifetime.start.p0(i64 4, ptr %16) #10
  %17 = load i32, ptr %7, align 4, !tbaa !10
  %18 = mul nsw i32 %17, 16
  %19 = sext i32 %18 to i64
  %20 = call noalias ptr @calloc(i64 noundef %19, i64 noundef 4) #11
  store ptr %20, ptr %11, align 8, !tbaa !16
  store i32 0, ptr %12, align 4, !tbaa !10
  br label %21

21:                                               ; preds = %81, %4
  %22 = load i32, ptr %12, align 4, !tbaa !10
  %23 = load ptr, ptr %5, align 8, !tbaa !3
  %24 = call i32 @Saig_ManRegNum(ptr noundef %23)
  %25 = icmp slt i32 %22, %24
  br i1 %25, label %26, label %35

26:                                               ; preds = %21
  %27 = load ptr, ptr %5, align 8, !tbaa !3
  %28 = getelementptr inbounds nuw %struct.Aig_Man_t_, ptr %27, i32 0, i32 3
  %29 = load ptr, ptr %28, align 8, !tbaa !51
  %30 = load i32, ptr %12, align 4, !tbaa !10
  %31 = load ptr, ptr %5, align 8, !tbaa !3
  %32 = call i32 @Saig_ManPoNum(ptr noundef %31)
  %33 = add nsw i32 %30, %32
  %34 = call ptr @Vec_PtrEntry(ptr noundef %29, i32 noundef %33)
  store ptr %34, ptr %9, align 8, !tbaa !12
  br label %35

35:                                               ; preds = %26, %21
  %36 = phi i1 [ false, %21 ], [ true, %26 ]
  br i1 %36, label %37, label %84

37:                                               ; preds = %35
  %38 = load ptr, ptr %6, align 8, !tbaa !8
  %39 = load ptr, ptr %9, align 8, !tbaa !12
  %40 = getelementptr inbounds nuw %struct.Aig_Obj_t_, ptr %39, i32 0, i32 5
  %41 = load i32, ptr %40, align 4, !tbaa !14
  %42 = call ptr @Vec_PtrEntry(ptr noundef %38, i32 noundef %41)
  store ptr %42, ptr %10, align 8, !tbaa !16
  store i32 0, ptr %13, align 4, !tbaa !10
  br label %43

43:                                               ; preds = %77, %37
  %44 = load i32, ptr %13, align 4, !tbaa !10
  %45 = load i32, ptr %7, align 4, !tbaa !10
  %46 = icmp slt i32 %44, %45
  br i1 %46, label %47, label %80

47:                                               ; preds = %43
  store i32 0, ptr %14, align 4, !tbaa !10
  br label %48

48:                                               ; preds = %73, %47
  %49 = load i32, ptr %14, align 4, !tbaa !10
  %50 = icmp slt i32 %49, 16
  br i1 %50, label %51, label %76

51:                                               ; preds = %48
  %52 = load ptr, ptr %10, align 8, !tbaa !16
  %53 = load i32, ptr %13, align 4, !tbaa !10
  %54 = sext i32 %53 to i64
  %55 = getelementptr inbounds i32, ptr %52, i64 %54
  %56 = load i32, ptr %55, align 4, !tbaa !10
  %57 = load i32, ptr %14, align 4, !tbaa !10
  %58 = shl i32 %57, 1
  %59 = lshr i32 %56, %58
  %60 = and i32 %59, 3
  %61 = icmp eq i32 %60, 3
  br i1 %61, label %62, label %72

62:                                               ; preds = %51
  %63 = load ptr, ptr %11, align 8, !tbaa !16
  %64 = load i32, ptr %13, align 4, !tbaa !10
  %65 = mul nsw i32 16, %64
  %66 = load i32, ptr %14, align 4, !tbaa !10
  %67 = add nsw i32 %65, %66
  %68 = sext i32 %67 to i64
  %69 = getelementptr inbounds i32, ptr %63, i64 %68
  %70 = load i32, ptr %69, align 4, !tbaa !10
  %71 = add nsw i32 %70, 1
  store i32 %71, ptr %69, align 4, !tbaa !10
  br label %72

72:                                               ; preds = %62, %51
  br label %73

73:                                               ; preds = %72
  %74 = load i32, ptr %14, align 4, !tbaa !10
  %75 = add nsw i32 %74, 1
  store i32 %75, ptr %14, align 4, !tbaa !10
  br label %48, !llvm.loop !61

76:                                               ; preds = %48
  br label %77

77:                                               ; preds = %76
  %78 = load i32, ptr %13, align 4, !tbaa !10
  %79 = add nsw i32 %78, 1
  store i32 %79, ptr %13, align 4, !tbaa !10
  br label %43, !llvm.loop !62

80:                                               ; preds = %43
  br label %81

81:                                               ; preds = %80
  %82 = load i32, ptr %12, align 4, !tbaa !10
  %83 = add nsw i32 %82, 1
  store i32 %83, ptr %12, align 4, !tbaa !10
  br label %21, !llvm.loop !63

84:                                               ; preds = %35
  store i32 -1, ptr %15, align 4, !tbaa !10
  %85 = load ptr, ptr %5, align 8, !tbaa !3
  %86 = call i32 @Saig_ManRegNum(ptr noundef %85)
  %87 = add nsw i32 1, %86
  store i32 %87, ptr %16, align 4, !tbaa !10
  store i32 0, ptr %14, align 4, !tbaa !10
  br label %88

88:                                               ; preds = %113, %84
  %89 = load i32, ptr %14, align 4, !tbaa !10
  %90 = load i32, ptr %7, align 4, !tbaa !10
  %91 = mul nsw i32 16, %90
  %92 = icmp slt i32 %89, %91
  br i1 %92, label %93, label %116

93:                                               ; preds = %88
  %94 = load i32, ptr %16, align 4, !tbaa !10
  %95 = load ptr, ptr %11, align 8, !tbaa !16
  %96 = load i32, ptr %14, align 4, !tbaa !10
  %97 = sext i32 %96 to i64
  %98 = getelementptr inbounds i32, ptr %95, i64 %97
  %99 = load i32, ptr %98, align 4, !tbaa !10
  %100 = icmp sgt i32 %94, %99
  br i1 %100, label %101, label %112

101:                                              ; preds = %93
  %102 = load ptr, ptr %11, align 8, !tbaa !16
  %103 = load i32, ptr %14, align 4, !tbaa !10
  %104 = sext i32 %103 to i64
  %105 = getelementptr inbounds i32, ptr %102, i64 %104
  %106 = load i32, ptr %105, align 4, !tbaa !10
  store i32 %106, ptr %16, align 4, !tbaa !10
  %107 = load i32, ptr %14, align 4, !tbaa !10
  store i32 %107, ptr %15, align 4, !tbaa !10
  %108 = load i32, ptr %16, align 4, !tbaa !10
  %109 = icmp eq i32 %108, 0
  br i1 %109, label %110, label %111

110:                                              ; preds = %101
  br label %116

111:                                              ; preds = %101
  br label %112

112:                                              ; preds = %111, %93
  br label %113

113:                                              ; preds = %112
  %114 = load i32, ptr %14, align 4, !tbaa !10
  %115 = add nsw i32 %114, 1
  store i32 %115, ptr %14, align 4, !tbaa !10
  br label %88, !llvm.loop !64

116:                                              ; preds = %110, %88
  %117 = load ptr, ptr %11, align 8, !tbaa !16
  %118 = icmp ne ptr %117, null
  br i1 %118, label %119, label %121

119:                                              ; preds = %116
  %120 = load ptr, ptr %11, align 8, !tbaa !16
  call void @free(ptr noundef %120) #10
  store ptr null, ptr %11, align 8, !tbaa !16
  br label %122

121:                                              ; preds = %116
  br label %122

122:                                              ; preds = %121, %119
  %123 = load i32, ptr %15, align 4, !tbaa !10
  %124 = load ptr, ptr %8, align 8, !tbaa !16
  store i32 %123, ptr %124, align 4, !tbaa !10
  %125 = load i32, ptr %16, align 4, !tbaa !10
  call void @llvm.lifetime.end.p0(i64 4, ptr %16) #10
  call void @llvm.lifetime.end.p0(i64 4, ptr %15) #10
  call void @llvm.lifetime.end.p0(i64 4, ptr %14) #10
  call void @llvm.lifetime.end.p0(i64 4, ptr %13) #10
  call void @llvm.lifetime.end.p0(i64 4, ptr %12) #10
  call void @llvm.lifetime.end.p0(i64 8, ptr %11) #10
  call void @llvm.lifetime.end.p0(i64 8, ptr %10) #10
  call void @llvm.lifetime.end.p0(i64 8, ptr %9) #10
  ret i32 %125
}