; Function Attrs: nounwind uwtable
define i32 @Saig_SynchCountX(ptr noundef readonly captures(none) %0, ptr noundef readonly captures(none) %1, i32 noundef %2, ptr noundef writeonly captures(none) %3) local_unnamed_addr #3 {
  %5 = shl nsw i32 %2, 4
  %6 = sext i32 %5 to i64
  %7 = tail call noalias ptr @calloc(i64 noundef %6, i64 noundef 4) #19
  %8 = getelementptr i8, ptr %0, i64 104
  %.val46 = load i32, ptr %8, align 8, !tbaa !26
  %9 = icmp sgt i32 %.val46, 0
  br i1 %9, label %.lr.ph, label %.critedge

.lr.ph:                                           ; preds = %4
  %10 = getelementptr i8, ptr %1, i64 8
  %.val = load ptr, ptr %10, align 8, !tbaa !3
  %11 = icmp sgt i32 %2, 0
  br i1 %11, label %.preheader.lr.ph.us.preheader, label %.critedge.thread

.critedge.thread:                                 ; preds = %.lr.ph
  %12 = add nuw nsw i32 %.val46, 1
  br label %._crit_edge

.preheader.lr.ph.us.preheader:                    ; preds = %.lr.ph
  %13 = getelementptr inbounds nuw i8, ptr %0, i64 24
  %14 = load ptr, ptr %13, align 8, !tbaa !40
  %15 = getelementptr i8, ptr %14, i64 8
  %.val44 = load ptr, ptr %15, align 8, !tbaa !3
  %16 = getelementptr i8, ptr %0, i64 112
  %.val47 = load i32, ptr %16, align 8, !tbaa !41
  %17 = sext i32 %.val47 to i64
  %wide.trip.count78 = zext nneg i32 %.val46 to i64
  %invariant.gep88 = getelementptr ptr, ptr %.val44, i64 %17
  %wide.trip.count = zext nneg i32 %2 to i64
  br label %.preheader.lr.ph.us

.preheader.lr.ph.us:                              ; preds = %.preheader.lr.ph.us.preheader, %._crit_edge.us
  %indvars.iv75 = phi i64 [ 0, %.preheader.lr.ph.us.preheader ], [ %indvars.iv.next76, %._crit_edge.us ]
  %gep89 = getelementptr ptr, ptr %invariant.gep88, i64 %indvars.iv75
  %18 = load ptr, ptr %gep89, align 8, !tbaa !24
  %19 = getelementptr inbounds nuw i8, ptr %18, i64 36
  %20 = load i32, ptr %19, align 4, !tbaa !23
  %21 = sext i32 %20 to i64
  %22 = getelementptr inbounds ptr, ptr %.val, i64 %21
  %23 = load ptr, ptr %22, align 8, !tbaa !24
  br label %.preheader.us

24:                                               ; preds = %33
  %indvars.iv.next72 = add nuw nsw i64 %indvars.iv71, 1
  %exitcond74.not = icmp eq i64 %indvars.iv.next72, %wide.trip.count
  br i1 %exitcond74.not, label %._crit_edge.us, label %.preheader.us, !llvm.loop !54

25:                                               ; preds = %.preheader.us, %33
  %indvars.iv = phi i64 [ 0, %.preheader.us ], [ %indvars.iv.next, %33 ]
  %indvars.iv.tr = trunc i64 %indvars.iv to i32
  %26 = shl i32 %indvars.iv.tr, 1
  %27 = lshr i32 %35, %26
  %28 = and i32 %27, 3
  %29 = icmp eq i32 %28, 3
  br i1 %29, label %30, label %33

30:                                               ; preds = %25
  %gep = getelementptr inbounds nuw i32, ptr %invariant.gep, i64 %indvars.iv
  %31 = load i32, ptr %gep, align 4, !tbaa !25
  %32 = add nsw i32 %31, 1
  store i32 %32, ptr %gep, align 4, !tbaa !25
  br label %33

33:                                               ; preds = %30, %25
  %indvars.iv.next = add nuw nsw i64 %indvars.iv, 1
  %exitcond.not = icmp eq i64 %indvars.iv.next, 16
  br i1 %exitcond.not, label %24, label %25, !llvm.loop !55

.preheader.us:                                    ; preds = %.preheader.lr.ph.us, %24
  %indvars.iv71 = phi i64 [ 0, %.preheader.lr.ph.us ], [ %indvars.iv.next72, %24 ]
  %34 = getelementptr inbounds nuw i32, ptr %23, i64 %indvars.iv71
  %35 = load i32, ptr %34, align 4, !tbaa !25
  %36 = shl i64 %indvars.iv71, 4
  %37 = and i64 %36, 4294967280
  %invariant.gep = getelementptr inbounds nuw i32, ptr %7, i64 %37
  br label %25

._crit_edge.us:                                   ; preds = %24
  %indvars.iv.next76 = add nuw nsw i64 %indvars.iv75, 1
  %exitcond79.not = icmp eq i64 %indvars.iv.next76, %wide.trip.count78
  br i1 %exitcond79.not, label %.critedge, label %.preheader.lr.ph.us, !llvm.loop !56

.critedge:                                        ; preds = %._crit_edge.us, %4
  %38 = add nsw i32 %.val46, 1
  %39 = icmp sgt i32 %2, 0
  br i1 %39, label %.lr.ph65.preheader, label %._crit_edge

.lr.ph65.preheader:                               ; preds = %.critedge
  %smax = tail call i32 @llvm.smax.i32(i32 %5, i32 1)
  %wide.trip.count83 = zext nneg i32 %smax to i64
  br label %.lr.ph65

.lr.ph65:                                         ; preds = %.lr.ph65.preheader, %46
  %indvars.iv80 = phi i64 [ 0, %.lr.ph65.preheader ], [ %indvars.iv.next81, %46 ]
  %.064 = phi i32 [ %38, %.lr.ph65.preheader ], [ %.2, %46 ]
  %.03563 = phi i32 [ -1, %.lr.ph65.preheader ], [ %.237, %46 ]
  %40 = getelementptr inbounds nuw i32, ptr %7, i64 %indvars.iv80
  %41 = load i32, ptr %40, align 4, !tbaa !25
  %42 = icmp sgt i32 %.064, %41
  br i1 %42, label %43, label %46

43:                                               ; preds = %.lr.ph65
  %44 = icmp eq i32 %41, 0
  %45 = trunc nuw nsw i64 %indvars.iv80 to i32
  br i1 %44, label %.thread, label %46

46:                                               ; preds = %.lr.ph65, %43
  %.237 = phi i32 [ %45, %43 ], [ %.03563, %.lr.ph65 ]
  %.2 = phi i32 [ %41, %43 ], [ %.064, %.lr.ph65 ]
  %indvars.iv.next81 = add nuw nsw i64 %indvars.iv80, 1
  %exitcond84.not = icmp eq i64 %indvars.iv.next81, %wide.trip.count83
  br i1 %exitcond84.not, label %.thread, label %.lr.ph65, !llvm.loop !57

._crit_edge:                                      ; preds = %.critedge.thread, %.critedge
  %.0.lcssa = phi i32 [ %38, %.critedge ], [ %12, %.critedge.thread ]
  %.not = icmp eq ptr %7, null
  br i1 %.not, label %47, label %.thread

.thread:                                          ; preds = %46, %43, %._crit_edge
  %.153 = phi i32 [ %.0.lcssa, %._crit_edge ], [ %.2, %46 ], [ 0, %43 ]
  %.13651 = phi i32 [ -1, %._crit_edge ], [ %.237, %46 ], [ %45, %43 ]
  tail call void @free(ptr noundef nonnull %7) #18
  br label %47

47:                                               ; preds = %._crit_edge, %.thread
  %.154 = phi i32 [ %.0.lcssa, %._crit_edge ], [ %.153, %.thread ]
  %.13652 = phi i32 [ -1, %._crit_edge ], [ %.13651, %.thread ]
  store i32 %.13652, ptr %3, align 4, !tbaa !25
  ret i32 %.154
}